******************************************************************************
               TMS320C6x Linker PC v7.4.20                     
******************************************************************************
>> Linked Wed Nov 08 15:30:53 2017

OUTPUT FILE NAME:   <S5e_APP6.out>
ENTRY POINT SYMBOL: "_c_int00"  address: 00001580


MEMORY CONFIGURATION

         name            origin    length      used     unused   attr    fill
----------------------  --------  ---------  --------  --------  ----  --------
  IVECS                 00000000   00000220  00000200  00000020  RWIX
  IRAM                  00000220   0002fde0  000029a0  0002d440  RWIX
  SDRAM                 80000000   01000000  00000000  01000000  RWIX
  FLASH                 90000000   00020000  00000000  00020000  RWIX


SECTION ALLOCATION MAP

 output                                  attributes/
section   page    origin      length       input sections
--------  ----  ----------  ----------   ----------------
.vectors   0    00000000    00000200     
                  00000000    00000200     Vectors.obj (.vectors)

.bss       0    00000220    00000000     UNINITIALIZED

.text      0    00000220    00001680     
                  00000220    00000480     dsk6713bsl.lib : dsk6713.obj (.text)
                  000006a0    00000280     SimpleInterrupt.obj (.text)
                  00000920    00000240     rts6700.lib : memcpy62.obj (.text:_memcpy)
                  00000b60    000001c0     csl6713.lib : csl_irq.obj (.text:_IRQ_map)
                  00000d20    000001a0     dsk6713bsl.lib : dsk6713_led.obj (.text)
                  00000ec0    00000100     rts6700.lib : autoinit.obj (.text:__auto_init)
                  00000fc0    000000e0                 : strasg.obj (.text:__strasg)
                  000010a0    000000e0                 : exit.obj (.text:_exit)
                  00001180    000000c0     csl6713.lib : csl_gpio.obj (.text:_GPIO_open)
                  00001240    000000c0                 : csl_gpio.obj (.text:_GPIO_reset)
                  00001300    000000c0     rts6700.lib : cpy_tbl.obj (.text:_copy_in)
                  000013c0    000000a0     csl6713.lib : csl_gpio.obj (.text:_GPIO_intPolarity)
                  00001460    000000a0                 : csl_irq.obj (.text:_setMux)
                  00001500    00000080     rts6700.lib : cpp_init.obj (.text:___TI_cpp_init)
                  00001580    00000080                 : boot.obj (.text:_c_int00)
                  00001600    00000060     csl6713.lib : csl_gpio.obj (.text:_GPIO_pinDirection)
                  00001660    00000040                 : csl_gpio.obj (.text:_GPIO_pinEnable)
                  000016a0    00000040                 : csl_gpio.obj (.text:_GPIO_pinWrite)
                  000016e0    00000040                 : csl_irq.obj (.text:_IRQ_enable)
                  00001720    00000040                 : csl_irq.obj (.text:_IRQ_reset)
                  00001760    00000040     rts6700.lib : args_main.obj (.text:__args_main)
                  000017a0    00000040     SimpleInterrupt.obj (.text:retain)
                  000017e0    00000020     Vectors.obj (.text)
                  00001800    00000020     csl6713.lib : csl_irq.obj (.text:_IRQ_globalEnable)
                  00001820    00000020                 : csl_irq.obj (.text:_IRQ_nmiEnable)
                  00001840    00000020                 : csl_irq.obj (.text:_IRQ_setVecs)
                  00001860    00000020     rts6700.lib : exit.obj (.text:_abort)
                  00001880    00000020     csl6713.lib : csl_irq.obj (.text)

.stack     0    000018a0    00001000     UNINITIALIZED
                  000018a0    00000008     rts6700.lib : boot.obj (.stack)
                  000018a8    00000ff8     --HOLE--

.cinit     0    000028a0    000001cc     
                  000028a0    0000012c     csl6713.lib : csl_irq.obj (.cinit)
                  000029cc    00000004     --HOLE-- [fill = 0]
                  000029d0    00000044                 : csl_gpio.obj (.cinit)
                  00002a14    00000004     --HOLE-- [fill = 0]
                  00002a18    0000002c     rts6700.lib : exit.obj (.cinit)
                  00002a44    00000004     --HOLE-- [fill = 0]
                  00002a48    0000001c     SimpleInterrupt.obj (.cinit)
                  00002a64    00000004     --HOLE-- [fill = 0]
                  00002a68    00000004     (.pad.cinit) [fill = 0]

.far       0    00002a6c    00000134     UNINITIALIZED
                  00002a6c    000000f4     csl6713.lib : csl_irq.obj (.far)
                  00002b60    00000024                 : csl_gpio.obj (.far)
                  00002b84    0000000c     SimpleInterrupt.obj (.far)
                  00002b90    0000000c     rts6700.lib : exit.obj (.far)
                  00002b9c    00000002     dsk6713bsl.lib : dsk6713.obj (.far)
                  00002b9e    00000002                    : dsk6713_led.obj (.far)

.const     0    00002ba0    00000020     
                  00002ba0    00000020     dsk6713bsl.lib : dsk6713.obj (.const)


GLOBAL SYMBOLS: SORTED ALPHABETICALLY BY Name 

address    name
--------   ----
00000220   $bss
00000220   .bss
00000220   .text
00001860   C$$EXIT
00000d20   _DSK6713_LED_init
00000d48   _DSK6713_LED_off
00000da4   _DSK6713_LED_on
00000e00   _DSK6713_LED_toggle
00000634   _DSK6713_getVersion
0000026c   _DSK6713_init
00000588   _DSK6713_rget
0000059c   _DSK6713_rset
00002b9c   _DSK6713_version
000005b0   _DSK6713_wait
00000608   _DSK6713_waitusec
000013c0   _GPIO_intPolarity
00001180   _GPIO_open
00001600   _GPIO_pinDirection
00001660   _GPIO_pinEnable
000016a0   _GPIO_pinWrite
00001240   _GPIO_reset
000016e0   _IRQ_enable
00001800   _IRQ_globalEnable
00000b60   _IRQ_map
00001820   _IRQ_nmiEnable
00001720   _IRQ_reset
00001840   _IRQ_setVecs
00002b6c   __GPIO_intTable
00002b58   __IRQ_dispatchTable
00002a94   __IRQ_eventTable
00001880   __IRQ_hookFetchPacket
00002b18   __IRQ_intTable
000028a0   __STACK_END
00001000   __STACK_SIZE
00000001   __TI_args_main
00001500   ___TI_cpp_init
00002b98   ___TI_enable_exit_profile_output
ffffffff   ___TI_pprof_out_hndl
ffffffff   ___TI_prof_data_size
ffffffff   ___TI_prof_data_start
ffffffff   ___binit__
00000220   ___bss__
ffffffff   ___c_args__
000028a0   ___cinit__
00000220   ___end__
000018a0   ___etext__
ffffffff   ___pinit__
00000220   ___text__
00001760   __args_main
00000ec0   __auto_init
00002b90   __cleanup_ptr
00002b94   __dtors_ptr
00002b80   __hGpioDev0
000018a0   __stack
00000fc0   __strasg
00001860   _abort
00001580   _c_int00
000017a0   _c_int04
00001300   _copy_in
000010a0   _exit
00002b84   _flagInterrupt
0000075c   _init_ext_intr
000006a0   _main
00000920   _memcpy
00000020   _vector1
00000140   _vector10
00000160   _vector11
00000180   _vector12
000001a0   _vector13
000001c0   _vector14
000001e0   _vector15
00000040   _vector2
00000060   _vector3
000000a0   _vector5
000000c0   _vector6
000000e0   _vector7
00000100   _vector8
00000120   _vector9
00000000   _vectors
ffffffff   binit
000028a0   cinit
00000220   end
000018a0   etext
ffffffff   pinit


GLOBAL SYMBOLS: SORTED BY Symbol Address 

address    name
--------   ----
00000000   _vectors
00000001   __TI_args_main
00000020   _vector1
00000040   _vector2
00000060   _vector3
000000a0   _vector5
000000c0   _vector6
000000e0   _vector7
00000100   _vector8
00000120   _vector9
00000140   _vector10
00000160   _vector11
00000180   _vector12
000001a0   _vector13
000001c0   _vector14
000001e0   _vector15
00000220   $bss
00000220   .bss
00000220   .text
00000220   ___bss__
00000220   ___end__
00000220   ___text__
00000220   end
0000026c   _DSK6713_init
00000588   _DSK6713_rget
0000059c   _DSK6713_rset
000005b0   _DSK6713_wait
00000608   _DSK6713_waitusec
00000634   _DSK6713_getVersion
000006a0   _main
0000075c   _init_ext_intr
00000920   _memcpy
00000b60   _IRQ_map
00000d20   _DSK6713_LED_init
00000d48   _DSK6713_LED_off
00000da4   _DSK6713_LED_on
00000e00   _DSK6713_LED_toggle
00000ec0   __auto_init
00000fc0   __strasg
00001000   __STACK_SIZE
000010a0   _exit
00001180   _GPIO_open
00001240   _GPIO_reset
00001300   _copy_in
000013c0   _GPIO_intPolarity
00001500   ___TI_cpp_init
00001580   _c_int00
00001600   _GPIO_pinDirection
00001660   _GPIO_pinEnable
000016a0   _GPIO_pinWrite
000016e0   _IRQ_enable
00001720   _IRQ_reset
00001760   __args_main
000017a0   _c_int04
00001800   _IRQ_globalEnable
00001820   _IRQ_nmiEnable
00001840   _IRQ_setVecs
00001860   C$$EXIT
00001860   _abort
00001880   __IRQ_hookFetchPacket
000018a0   ___etext__
000018a0   __stack
000018a0   etext
000028a0   __STACK_END
000028a0   ___cinit__
000028a0   cinit
00002a94   __IRQ_eventTable
00002b18   __IRQ_intTable
00002b58   __IRQ_dispatchTable
00002b6c   __GPIO_intTable
00002b80   __hGpioDev0
00002b84   _flagInterrupt
00002b90   __cleanup_ptr
00002b94   __dtors_ptr
00002b98   ___TI_enable_exit_profile_output
00002b9c   _DSK6713_version
ffffffff   ___TI_pprof_out_hndl
ffffffff   ___TI_prof_data_size
ffffffff   ___TI_prof_data_start
ffffffff   ___binit__
ffffffff   ___c_args__
ffffffff   ___pinit__
ffffffff   binit
ffffffff   pinit

[84 symbols]
